target datalayout = "e-m:e-p270:32:32-p271:32:32-p272:64:64-i64:64-i128:128-f80:128-n8:16:32:64-S128"
target triple = "x86_64-pc-linux-gnu"

%struct.SDL_DriverWii_Context = type { ptr, ptr, i64, i32, i32, i8, i32, i8, i8, i8, i8, [22 x i8], i64, i64, i64, i8, [6 x %struct.StickCalibrationData] }
%struct.StickCalibrationData = type { i16, i16, i16, i16 }
%struct.SDL_HIDAPI_Device = type { ptr, ptr, ptr, ptr, i16, i16, i16, ptr, %struct.SDL_GUID, i32, i32, i32, i32, i16, i16, i8, i32, i32, i32, ptr, ptr, ptr, ptr, %struct.SDL_AtomicInt, i32, ptr, i8, i8, i8, ptr, i32, ptr, ptr }
%struct.SDL_GUID = type { [16 x i8] }
%struct.SDL_AtomicInt = type { i32 }

; Function Attrs: nounwind uwtable
define internal zeroext i1 @WriteOutput(ptr noundef %0, ptr noundef %1, i32 noundef %2, i1 noundef zeroext %3) #0 {
  %5 = alloca i1, align 1
  %6 = alloca ptr, align 8
  %7 = alloca ptr, align 8
  %8 = alloca i32, align 4
  %9 = alloca i8, align 1
  store ptr %0, ptr %6, align 8
  store ptr %1, ptr %7, align 8
  store i32 %2, ptr %8, align 4
  %10 = zext i1 %3 to i8
  store i8 %10, ptr %9, align 1
  %11 = load i8, ptr %9, align 1, !range !5, !noundef !6
  %12 = trunc i8 %11 to i1
  br i1 %12, label %13, label %24

13:                                               ; preds = %4
  %14 = load ptr, ptr %6, align 8
  %15 = getelementptr inbounds nuw %struct.SDL_DriverWii_Context, ptr %14, i32 0, i32 0
  %16 = load ptr, ptr %15, align 8
  %17 = getelementptr inbounds nuw %struct.SDL_HIDAPI_Device, ptr %16, i32 0, i32 22
  %18 = load ptr, ptr %17, align 8
  %19 = load ptr, ptr %7, align 8
  %20 = load i32, ptr %8, align 4
  %21 = sext i32 %20 to i64
  %22 = call i32 @SDL_hid_write_REAL(ptr noundef %18, ptr noundef %19, i64 noundef %21)
  %23 = icmp sge i32 %22, 0
  store i1 %23, ptr %5, align 1
  br label %35

24:                                               ; preds = %4
  %25 = call zeroext i1 @SDL_HIDAPI_LockRumble()
  br i1 %25, label %27, label %26

26:                                               ; preds = %24
  store i1 false, ptr %5, align 1
  br label %35

27:                                               ; preds = %24
  %28 = load ptr, ptr %6, align 8
  %29 = getelementptr inbounds nuw %struct.SDL_DriverWii_Context, ptr %28, i32 0, i32 0
  %30 = load ptr, ptr %29, align 8
  %31 = load ptr, ptr %7, align 8
  %32 = load i32, ptr %8, align 4
  %33 = call i32 @SDL_HIDAPI_SendRumbleAndUnlock(ptr noundef %30, ptr noundef %31, i32 noundef %32)
  %34 = icmp sge i32 %33, 0
  store i1 %34, ptr %5, align 1
  br label %35

35:                                               ; preds = %27, %26, %13
  %36 = load i1, ptr %5, align 1
  ret i1 %36
}

; Function Attrs: nounwind uwtable
define internal zeroext i1 @HIDAPI_DriverWii_RumbleJoystick(ptr noundef %0, ptr noundef %1, i16 noundef zeroext %2, i16 noundef zeroext %3) #0 {
  %5 = alloca ptr, align 8
  %6 = alloca ptr, align 8
  %7 = alloca i16, align 2
  %8 = alloca i16, align 2
  %9 = alloca ptr, align 8
  %10 = alloca i8, align 1
  %11 = alloca [2 x i8], align 1
  store ptr %0, ptr %5, align 8
  store ptr %1, ptr %6, align 8
  store i16 %2, ptr %7, align 2
  store i16 %3, ptr %8, align 2
  call void @llvm.lifetime.start.p0(i64 8, ptr %9) #6
  %12 = load ptr, ptr %5, align 8
  %13 = getelementptr inbounds nuw %struct.SDL_HIDAPI_Device, ptr %12, i32 0, i32 20
  %14 = load ptr, ptr %13, align 8
  store ptr %14, ptr %9, align 8
  call void @llvm.lifetime.start.p0(i64 1, ptr %10) #6
  %15 = load i16, ptr %7, align 2
  %16 = zext i16 %15 to i32
  %17 = icmp ne i32 %16, 0
  br i1 %17, label %22, label %18

18:                                               ; preds = %4
  %19 = load i16, ptr %8, align 2
  %20 = zext i16 %19 to i32
  %21 = icmp ne i32 %20, 0
  br label %22

22:                                               ; preds = %18, %4
  %23 = phi i1 [ true, %4 ], [ %21, %18 ]
  %24 = zext i1 %23 to i8
  store i8 %24, ptr %10, align 1
  %25 = load i8, ptr %10, align 1, !range !5, !noundef !6
  %26 = trunc i8 %25 to i1
  %27 = zext i1 %26 to i32
  %28 = load ptr, ptr %9, align 8
  %29 = getelementptr inbounds nuw %struct.SDL_DriverWii_Context, ptr %28, i32 0, i32 7
  %30 = load i8, ptr %29, align 8, !range !5, !noundef !6
  %31 = trunc i8 %30 to i1
  %32 = zext i1 %31 to i32
  %33 = icmp ne i32 %27, %32
  br i1 %33, label %34, label %48

34:                                               ; preds = %22
  call void @llvm.lifetime.start.p0(i64 2, ptr %11) #6
  %35 = getelementptr inbounds [2 x i8], ptr %11, i64 0, i64 0
  store i8 16, ptr %35, align 1
  %36 = load i8, ptr %10, align 1, !range !5, !noundef !6
  %37 = trunc i8 %36 to i1
  %38 = zext i1 %37 to i8
  %39 = getelementptr inbounds [2 x i8], ptr %11, i64 0, i64 1
  store i8 %38, ptr %39, align 1
  %40 = load ptr, ptr %9, align 8
  %41 = getelementptr inbounds [2 x i8], ptr %11, i64 0, i64 0
  %42 = call zeroext i1 @WriteOutput(ptr noundef %40, ptr noundef %41, i32 noundef 2, i1 noundef zeroext false)
  %43 = load i8, ptr %10, align 1, !range !5, !noundef !6
  %44 = trunc i8 %43 to i1
  %45 = load ptr, ptr %9, align 8
  %46 = getelementptr inbounds nuw %struct.SDL_DriverWii_Context, ptr %45, i32 0, i32 7
  %47 = zext i1 %44 to i8
  store i8 %47, ptr %46, align 8
  call void @llvm.lifetime.end.p0(i64 2, ptr %11) #6
  br label %48

48:                                               ; preds = %34, %22
  call void @llvm.lifetime.end.p0(i64 1, ptr %10) #6
  call void @llvm.lifetime.end.p0(i64 8, ptr %9) #6
  ret i1 true
}