; Function Attrs: nounwind uwtable
define internal noundef zeroext i1 @HIDAPI_DriverWii_RumbleJoystick(ptr noundef readonly captures(none) %0, ptr readnone captures(none) %1, i16 noundef zeroext %2, i16 noundef zeroext %3) #0 {
  %5 = alloca [2 x i8], align 1
  %6 = getelementptr inbounds nuw i8, ptr %0, i64 112
  %7 = load ptr, ptr %6, align 8
  %8 = or i16 %3, %2
  %9 = icmp ne i16 %8, 0
  %10 = getelementptr inbounds nuw i8, ptr %7, i64 40
  %11 = load i8, ptr %10, align 8, !range !5, !noundef !6
  %12 = zext i1 %9 to i8
  %.not = icmp eq i8 %11, %12
  br i1 %.not, label %19, label %13

13:                                               ; preds = %4
  call void @llvm.lifetime.start.p0(i64 2, ptr nonnull %5) #7
  store i8 16, ptr %5, align 1
  %14 = getelementptr inbounds nuw i8, ptr %5, i64 1
  store i8 %12, ptr %14, align 1
  %15 = tail call zeroext i1 @SDL_HIDAPI_LockRumble() #7
  br i1 %15, label %16, label %WriteOutput.exit

16:                                               ; preds = %13
  %17 = load ptr, ptr %7, align 8
  %18 = call i32 @SDL_HIDAPI_SendRumbleAndUnlock(ptr noundef %17, ptr noundef nonnull %5, i32 noundef 2) #7
  br label %WriteOutput.exit

WriteOutput.exit:                                 ; preds = %13, %16
  store i8 %12, ptr %10, align 8
  call void @llvm.lifetime.end.p0(i64 2, ptr nonnull %5) #7
  br label %19

19:                                               ; preds = %WriteOutput.exit, %4
  ret i1 true
}